; Function Attrs: mustprogress uwtable
define void @_ZN4base8internal13WeakReferenceC2ERKS1_(ptr noundef nonnull writeonly align 8 captures(none) dereferenceable(8) initializes((0, 8)) %0, ptr noundef nonnull readonly align 8 captures(none) dereferenceable(8) %1) unnamed_addr #0 align 2 {
  %3 = load ptr, ptr %1, align 8, !tbaa !14
  store ptr %3, ptr %0, align 8, !tbaa !14
  %.not.i = icmp eq ptr %3, null
  br i1 %.not.i, label %_ZN13scoped_refptrIKN4base8internal13WeakReference4FlagEEC2ERKS5_.exit, label %4

4:                                                ; preds = %2
  tail call void @_ZNK4base6subtle24RefCountedThreadSafeBase6AddRefEv(ptr noundef nonnull align 4 dereferenceable(4) %3)
  br label %_ZN13scoped_refptrIKN4base8internal13WeakReference4FlagEEC2ERKS5_.exit

_ZN13scoped_refptrIKN4base8internal13WeakReference4FlagEEC2ERKS5_.exit: ; preds = %2, %4
  ret void
}